target datalayout = "e-m:e-p270:32:32-p271:32:32-p272:64:64-i64:64-i128:128-f80:128-n8:16:32:64-S128"
target triple = "x86_64-pc-linux-gnu"

@.str.45 = private unnamed_addr constant [5 x i8] c" EiB\00", align 1
@.str.46 = private unnamed_addr constant [5 x i8] c"%.3f\00", align 1
@.str.47 = private unnamed_addr constant [5 x i8] c" PiB\00", align 1
@.str.48 = private unnamed_addr constant [5 x i8] c" TiB\00", align 1
@.str.49 = private unnamed_addr constant [5 x i8] c" GiB\00", align 1
@.str.50 = private unnamed_addr constant [5 x i8] c" MiB\00", align 1
@.str.51 = private unnamed_addr constant [5 x i8] c" KiB\00", align 1
@.str.52 = private unnamed_addr constant [7 x i8] c" bytes\00", align 1
@.str.53 = private unnamed_addr constant [3 x i8] c"%f\00", align 1
@.str.54 = private unnamed_addr constant [5 x i8] c".000\00", align 1

; Function Attrs: alwaysinline nounwind
define internal ptr @strcat.inline(ptr noalias nonnull %0, ptr noalias nonnull %1) #12 {
  %3 = alloca ptr, align 8
  %4 = alloca ptr, align 8
  store ptr %0, ptr %3, align 8
  store ptr %1, ptr %4, align 8
  %5 = load ptr, ptr %3, align 8
  %6 = load ptr, ptr %4, align 8
  %7 = load ptr, ptr %3, align 8
  %8 = call i64 @llvm.objectsize.i64.p0(ptr %7, i1 false, i1 true, i1 false)
  %9 = call ptr @__strcat_chk(ptr noundef %5, ptr noundef %6, i64 noundef %8) #18
  ret ptr %9
}

; Function Attrs: alwaysinline nounwind
define internal ptr @strcpy.inline(ptr noalias nonnull %0, ptr noalias nonnull %1) #12 {
  %3 = alloca ptr, align 8
  %4 = alloca ptr, align 8
  store ptr %0, ptr %3, align 8
  store ptr %1, ptr %4, align 8
  %5 = load ptr, ptr %3, align 8
  %6 = load ptr, ptr %4, align 8
  %7 = load ptr, ptr %3, align 8
  %8 = call i64 @llvm.objectsize.i64.p0(ptr %7, i1 false, i1 true, i1 false)
  %9 = call ptr @__strcpy_chk(ptr noundef %5, ptr noundef %6, i64 noundef %8) #18
  ret ptr %9
}

; Function Attrs: nounwind sspstrong uwtable
define internal void @cvtstr(double noundef %0, ptr noundef %1, i64 noundef %2) #0 {
  %4 = alloca double, align 8
  %5 = alloca ptr, align 8
  %6 = alloca i64, align 8
  %7 = alloca ptr, align 8
  %8 = alloca ptr, align 8
  store double %0, ptr %4, align 8
  store ptr %1, ptr %5, align 8
  store i64 %2, ptr %6, align 8
  call void @llvm.lifetime.start.p0(i64 8, ptr %7) #18
  store ptr null, ptr %7, align 8, !annotation !4
  call void @llvm.lifetime.start.p0(i64 8, ptr %8) #18
  store ptr null, ptr %8, align 8, !annotation !4
  %9 = load double, ptr %4, align 8
  %10 = fcmp oge double %9, 0x43B0000000000000
  br i1 %10, label %11, label %20

11:                                               ; preds = %3
  store ptr @.str.45, ptr %8, align 8
  %12 = load ptr, ptr %5, align 8
  %13 = load i64, ptr %6, align 8
  %14 = sub i64 %13, 4
  %15 = load ptr, ptr %5, align 8
  %16 = call i64 @llvm.objectsize.i64.p0(ptr %15, i1 false, i1 true, i1 false)
  %17 = load double, ptr %4, align 8
  %18 = fdiv double %17, 0x43B0000000000000
  %19 = call i32 (ptr, i64, i32, i64, ptr, ...) @__snprintf_chk(ptr noundef %12, i64 noundef %14, i32 noundef 1, i64 noundef %16, ptr noundef @.str.46, double noundef %18)
  br label %93

20:                                               ; preds = %3
  %21 = load double, ptr %4, align 8
  %22 = fcmp oge double %21, 0x4310000000000000
  br i1 %22, label %23, label %32

23:                                               ; preds = %20
  store ptr @.str.47, ptr %8, align 8
  %24 = load ptr, ptr %5, align 8
  %25 = load i64, ptr %6, align 8
  %26 = sub i64 %25, 4
  %27 = load ptr, ptr %5, align 8
  %28 = call i64 @llvm.objectsize.i64.p0(ptr %27, i1 false, i1 true, i1 false)
  %29 = load double, ptr %4, align 8
  %30 = fdiv double %29, 0x4310000000000000
  %31 = call i32 (ptr, i64, i32, i64, ptr, ...) @__snprintf_chk(ptr noundef %24, i64 noundef %26, i32 noundef 1, i64 noundef %28, ptr noundef @.str.46, double noundef %30)
  br label %92

32:                                               ; preds = %20
  %33 = load double, ptr %4, align 8
  %34 = fcmp oge double %33, 0x4270000000000000
  br i1 %34, label %35, label %44

35:                                               ; preds = %32
  store ptr @.str.48, ptr %8, align 8
  %36 = load ptr, ptr %5, align 8
  %37 = load i64, ptr %6, align 8
  %38 = sub i64 %37, 4
  %39 = load ptr, ptr %5, align 8
  %40 = call i64 @llvm.objectsize.i64.p0(ptr %39, i1 false, i1 true, i1 false)
  %41 = load double, ptr %4, align 8
  %42 = fdiv double %41, 0x4270000000000000
  %43 = call i32 (ptr, i64, i32, i64, ptr, ...) @__snprintf_chk(ptr noundef %36, i64 noundef %38, i32 noundef 1, i64 noundef %40, ptr noundef @.str.46, double noundef %42)
  br label %91

44:                                               ; preds = %32
  %45 = load double, ptr %4, align 8
  %46 = fcmp oge double %45, 0x41D0000000000000
  br i1 %46, label %47, label %56

47:                                               ; preds = %44
  store ptr @.str.49, ptr %8, align 8
  %48 = load ptr, ptr %5, align 8
  %49 = load i64, ptr %6, align 8
  %50 = sub i64 %49, 4
  %51 = load ptr, ptr %5, align 8
  %52 = call i64 @llvm.objectsize.i64.p0(ptr %51, i1 false, i1 true, i1 false)
  %53 = load double, ptr %4, align 8
  %54 = fdiv double %53, 0x41D0000000000000
  %55 = call i32 (ptr, i64, i32, i64, ptr, ...) @__snprintf_chk(ptr noundef %48, i64 noundef %50, i32 noundef 1, i64 noundef %52, ptr noundef @.str.46, double noundef %54)
  br label %90

56:                                               ; preds = %44
  %57 = load double, ptr %4, align 8
  %58 = fcmp oge double %57, 0x4130000000000000
  br i1 %58, label %59, label %68

59:                                               ; preds = %56
  store ptr @.str.50, ptr %8, align 8
  %60 = load ptr, ptr %5, align 8
  %61 = load i64, ptr %6, align 8
  %62 = sub i64 %61, 4
  %63 = load ptr, ptr %5, align 8
  %64 = call i64 @llvm.objectsize.i64.p0(ptr %63, i1 false, i1 true, i1 false)
  %65 = load double, ptr %4, align 8
  %66 = fdiv double %65, 0x4130000000000000
  %67 = call i32 (ptr, i64, i32, i64, ptr, ...) @__snprintf_chk(ptr noundef %60, i64 noundef %62, i32 noundef 1, i64 noundef %64, ptr noundef @.str.46, double noundef %66)
  br label %89

68:                                               ; preds = %56
  %69 = load double, ptr %4, align 8
  %70 = fcmp oge double %69, 1.024000e+03
  br i1 %70, label %71, label %80

71:                                               ; preds = %68
  store ptr @.str.51, ptr %8, align 8
  %72 = load ptr, ptr %5, align 8
  %73 = load i64, ptr %6, align 8
  %74 = sub i64 %73, 4
  %75 = load ptr, ptr %5, align 8
  %76 = call i64 @llvm.objectsize.i64.p0(ptr %75, i1 false, i1 true, i1 false)
  %77 = load double, ptr %4, align 8
  %78 = fdiv double %77, 1.024000e+03
  %79 = call i32 (ptr, i64, i32, i64, ptr, ...) @__snprintf_chk(ptr noundef %72, i64 noundef %74, i32 noundef 1, i64 noundef %76, ptr noundef @.str.46, double noundef %78)
  br label %88

80:                                               ; preds = %68
  store ptr @.str.52, ptr %8, align 8
  %81 = load ptr, ptr %5, align 8
  %82 = load i64, ptr %6, align 8
  %83 = sub i64 %82, 6
  %84 = load ptr, ptr %5, align 8
  %85 = call i64 @llvm.objectsize.i64.p0(ptr %84, i1 false, i1 true, i1 false)
  %86 = load double, ptr %4, align 8
  %87 = call i32 (ptr, i64, i32, i64, ptr, ...) @__snprintf_chk(ptr noundef %81, i64 noundef %83, i32 noundef 1, i64 noundef %85, ptr noundef @.str.53, double noundef %86)
  br label %88

88:                                               ; preds = %80, %71
  br label %89

89:                                               ; preds = %88, %59
  br label %90

90:                                               ; preds = %89, %47
  br label %91

91:                                               ; preds = %90, %35
  br label %92

92:                                               ; preds = %91, %23
  br label %93

93:                                               ; preds = %92, %11
  %94 = load ptr, ptr %5, align 8
  %95 = call ptr @strstr(ptr noundef %94, ptr noundef @.str.54) #19
  store ptr %95, ptr %7, align 8
  %96 = load ptr, ptr %7, align 8
  %97 = icmp ne ptr %96, null
  br i1 %97, label %98, label %102

98:                                               ; preds = %93
  %99 = load ptr, ptr %7, align 8
  %100 = load ptr, ptr %8, align 8
  %101 = call ptr @strcpy.inline(ptr noundef %99, ptr noundef %100) #18
  br label %106

102:                                              ; preds = %93
  %103 = load ptr, ptr %5, align 8
  %104 = load ptr, ptr %8, align 8
  %105 = call ptr @strcat.inline(ptr noundef %103, ptr noundef %104) #18
  br label %106

106:                                              ; preds = %102, %98
  call void @llvm.lifetime.end.p0(i64 8, ptr %8) #18
  call void @llvm.lifetime.end.p0(i64 8, ptr %7) #18
  ret void
}