; Function Attrs: nofree nounwind sspstrong uwtable
define internal fastcc void @cvtstr(double noundef %0, ptr noundef nonnull %1) unnamed_addr #14 {
  %3 = fcmp ult double %0, 0x43B0000000000000
  br i1 %3, label %7, label %4

4:                                                ; preds = %2
  %5 = fmul double %0, 0x3C30000000000000
  %6 = tail call i32 (ptr, i64, i32, i64, ptr, ...) @__snprintf_chk(ptr noundef nonnull %1, i64 noundef 60, i32 noundef 1, i64 noundef -1, ptr noundef nonnull @.str.46, double noundef %5) #26
  br label %34

7:                                                ; preds = %2
  %8 = fcmp ult double %0, 0x4310000000000000
  br i1 %8, label %12, label %9

9:                                                ; preds = %7
  %10 = fmul double %0, 0x3CD0000000000000
  %11 = tail call i32 (ptr, i64, i32, i64, ptr, ...) @__snprintf_chk(ptr noundef nonnull %1, i64 noundef 60, i32 noundef 1, i64 noundef -1, ptr noundef nonnull @.str.46, double noundef %10) #26
  br label %34

12:                                               ; preds = %7
  %13 = fcmp ult double %0, 0x4270000000000000
  br i1 %13, label %17, label %14

14:                                               ; preds = %12
  %15 = fmul double %0, 0x3D70000000000000
  %16 = tail call i32 (ptr, i64, i32, i64, ptr, ...) @__snprintf_chk(ptr noundef nonnull %1, i64 noundef 60, i32 noundef 1, i64 noundef -1, ptr noundef nonnull @.str.46, double noundef %15) #26
  br label %34

17:                                               ; preds = %12
  %18 = fcmp ult double %0, 0x41D0000000000000
  br i1 %18, label %22, label %19

19:                                               ; preds = %17
  %20 = fmul double %0, 0x3E10000000000000
  %21 = tail call i32 (ptr, i64, i32, i64, ptr, ...) @__snprintf_chk(ptr noundef nonnull %1, i64 noundef 60, i32 noundef 1, i64 noundef -1, ptr noundef nonnull @.str.46, double noundef %20) #26
  br label %34

22:                                               ; preds = %17
  %23 = fcmp ult double %0, 0x4130000000000000
  br i1 %23, label %27, label %24

24:                                               ; preds = %22
  %25 = fmul double %0, 0x3EB0000000000000
  %26 = tail call i32 (ptr, i64, i32, i64, ptr, ...) @__snprintf_chk(ptr noundef nonnull %1, i64 noundef 60, i32 noundef 1, i64 noundef -1, ptr noundef nonnull @.str.46, double noundef %25) #26
  br label %34

27:                                               ; preds = %22
  %28 = fcmp ult double %0, 1.024000e+03
  br i1 %28, label %32, label %29

29:                                               ; preds = %27
  %30 = fmul double %0, 0x3F50000000000000
  %31 = tail call i32 (ptr, i64, i32, i64, ptr, ...) @__snprintf_chk(ptr noundef nonnull %1, i64 noundef 60, i32 noundef 1, i64 noundef -1, ptr noundef nonnull @.str.46, double noundef %30) #26
  br label %34

32:                                               ; preds = %27
  %33 = tail call i32 (ptr, i64, i32, i64, ptr, ...) @__snprintf_chk(ptr noundef nonnull %1, i64 noundef 58, i32 noundef 1, i64 noundef -1, ptr noundef nonnull @.str.53, double noundef %0) #26
  br label %34

34:                                               ; preds = %9, %19, %29, %32, %24, %14, %4
  %.0 = phi ptr [ @.str.45, %4 ], [ @.str.47, %9 ], [ @.str.48, %14 ], [ @.str.49, %19 ], [ @.str.50, %24 ], [ @.str.51, %29 ], [ @.str.52, %32 ]
  %35 = tail call ptr @strstr(ptr noundef nonnull dereferenceable(1) %1, ptr noundef nonnull dereferenceable(1) @.str.54) #27
  %.not = icmp eq ptr %35, null
  br i1 %.not, label %37, label %36

36:                                               ; preds = %34
  %strcpy = tail call ptr @strcpy(ptr noundef nonnull dereferenceable(1) %35, ptr noundef nonnull dereferenceable(1) %.0)
  br label %38

37:                                               ; preds = %34
  %strcat = tail call ptr @strcat(ptr noundef nonnull dereferenceable(1) %1, ptr noundef nonnull dereferenceable(1) %.0)
  br label %38

38:                                               ; preds = %37, %36
  ret void
}